; Function Attrs: mustprogress uwtable
define hidden noundef zeroext i1 @_ZN4lean12is_const_appERKNS_4exprERKNS_4nameEj(ptr noundef nonnull align 8 dereferenceable(8) %0, ptr noundef nonnull readonly align 8 captures(none) dereferenceable(8) %1, i32 noundef %2) local_unnamed_addr #0 {
  %4 = tail call noundef nonnull align 8 dereferenceable(8) ptr @_ZN4lean10get_app_fnERKNS_4exprE(ptr noundef nonnull align 8 dereferenceable(8) %0)
  %5 = load ptr, ptr %4, align 8, !tbaa !3
  %6 = getelementptr i8, ptr %5, i64 4
  %.val.i.i.i.i.i = load i32, ptr %6, align 4
  %.mask.i.i = and i32 %.val.i.i.i.i.i, -16777216
  %7 = icmp eq i32 %.mask.i.i, 67108864
  br i1 %7, label %8, label %16

8:                                                ; preds = %3
  %9 = getelementptr inbounds nuw i8, ptr %5, i64 8
  %10 = load ptr, ptr %9, align 8, !tbaa !3
  %11 = load ptr, ptr %1, align 8, !tbaa !3
  %12 = tail call zeroext i8 @lean_name_eq(ptr noundef %10, ptr noundef %11)
  %.not = icmp eq i8 %12, 0
  br i1 %.not, label %16, label %13

13:                                               ; preds = %8
  %14 = tail call noundef i32 @_ZN4lean16get_app_num_argsERKNS_4exprE(ptr noundef nonnull align 8 dereferenceable(8) %0)
  %15 = icmp eq i32 %14, %2
  br label %16

16:                                               ; preds = %13, %8, %3
  %17 = phi i1 [ false, %8 ], [ false, %3 ], [ %15, %13 ]
  ret i1 %17
}